target datalayout = "e-m:e-p270:32:32-p271:32:32-p272:64:64-i64:64-i128:128-f80:128-n8:16:32:64-S128"
target triple = "x86_64-pc-linux-gnu"

%struct.DecoderPriv = type { %struct.Decoder, ptr, ptr, ptr, ptr, %struct.AVRational, %struct.AVRational, i32, i32, i32, i32, i32, i32, i64, i64, %struct.AVRational, i64, i32, [2 x ptr], ptr, ptr, i32, i32, ptr, [32 x i8], ptr, i32, ptr, i32, ptr, i32, %struct.anon }
%struct.Decoder = type { ptr, i32, ptr, i32, i64, i64, i64 }
%struct.AVRational = type { i32, i32 }
%struct.anon = type { ptr, ptr }
%struct.InputFilterOptions = type { i64, i64, ptr, %struct.AVRational, i32, i32, i32, i32, i32, i32, i32, ptr }

@.str.6 = private unnamed_addr constant [6 x i8] c"dec%d\00", align 1

; Function Attrs: nounwind uwtable
define internal ptr @dp_from_dec(ptr noundef %0) #0 {
  %2 = alloca ptr, align 8
  store ptr %0, ptr %2, align 8, !tbaa !10
  %3 = load ptr, ptr %2, align 8, !tbaa !10
  ret ptr %3
}

; Function Attrs: nounwind uwtable
define i32 @dec_filter_add(ptr noundef %0, ptr noundef %1, ptr noundef %2, ptr noundef %3, ptr noundef %4) #0 {
  %6 = alloca i32, align 4
  %7 = alloca ptr, align 8
  %8 = alloca ptr, align 8
  %9 = alloca ptr, align 8
  %10 = alloca ptr, align 8
  %11 = alloca ptr, align 8
  %12 = alloca ptr, align 8
  %13 = alloca [16 x i8], align 16
  %14 = alloca i32, align 4
  store ptr %0, ptr %7, align 8, !tbaa !10
  store ptr %1, ptr %8, align 8, !tbaa !186
  store ptr %2, ptr %9, align 8, !tbaa !188
  store ptr %3, ptr %10, align 8, !tbaa !18
  store ptr %4, ptr %11, align 8, !tbaa !20
  call void @llvm.lifetime.start.p0(i64 8, ptr %12) #11
  %15 = load ptr, ptr %7, align 8, !tbaa !10
  %16 = call ptr @dp_from_dec(ptr noundef %15)
  store ptr %16, ptr %12, align 8, !tbaa !12
  call void @llvm.lifetime.start.p0(i64 16, ptr %13) #11
  %17 = getelementptr inbounds [16 x i8], ptr %13, i64 0, i64 0
  %18 = load ptr, ptr %12, align 8, !tbaa !12
  %19 = getelementptr inbounds nuw %struct.DecoderPriv, ptr %18, i32 0, i32 22
  %20 = load i32, ptr %19, align 4, !tbaa !66
  %21 = call i32 (ptr, i64, ptr, ...) @snprintf(ptr noundef %17, i64 noundef 16, ptr noundef @.str.6, i32 noundef %20) #11
  %22 = getelementptr inbounds [16 x i8], ptr %13, i64 0, i64 0
  %23 = call noalias ptr @av_strdup(ptr noundef %22)
  %24 = load ptr, ptr %9, align 8, !tbaa !188
  %25 = getelementptr inbounds nuw %struct.InputFilterOptions, ptr %24, i32 0, i32 2
  store ptr %23, ptr %25, align 8, !tbaa !190
  %26 = load ptr, ptr %9, align 8, !tbaa !188
  %27 = getelementptr inbounds nuw %struct.InputFilterOptions, ptr %26, i32 0, i32 2
  %28 = load ptr, ptr %27, align 8, !tbaa !190
  %29 = icmp ne ptr %28, null
  br i1 %29, label %31, label %30

30:                                               ; preds = %5
  store i32 -12, ptr %6, align 4
  store i32 1, ptr %14, align 4
  br label %36

31:                                               ; preds = %5
  %32 = load ptr, ptr %7, align 8, !tbaa !10
  %33 = load ptr, ptr %10, align 8, !tbaa !18
  %34 = load ptr, ptr %11, align 8, !tbaa !20
  %35 = call i32 @dec_request_view(ptr noundef %32, ptr noundef %33, ptr noundef %34)
  store i32 %35, ptr %6, align 4
  store i32 1, ptr %14, align 4
  br label %36

36:                                               ; preds = %31, %30
  call void @llvm.lifetime.end.p0(i64 16, ptr %13) #11
  call void @llvm.lifetime.end.p0(i64 8, ptr %12) #11
  %37 = load i32, ptr %6, align 4
  ret i32 %37
}