; Function Attrs: nounwind uwtable
define range(i32 -2147483648, 1) i32 @dec_filter_add(ptr noundef %0, ptr noundef readnone captures(none) %1, ptr noundef writeonly captures(none) initializes((16, 24)) %2, ptr noundef readonly captures(address_is_null) %3, ptr noundef writeonly captures(none) %4) local_unnamed_addr #0 {
  %6 = alloca [16 x i8], align 16
  call void @llvm.lifetime.start.p0(i64 16, ptr nonnull %6) #13
  %7 = getelementptr inbounds nuw i8, ptr %0, i64 204
  %8 = load i32, ptr %7, align 4, !tbaa !44
  %9 = call i32 (ptr, i64, ptr, ...) @snprintf(ptr noundef nonnull dereferenceable(1) %6, i64 noundef 16, ptr noundef nonnull @.str.6, i32 noundef %8) #13
  %10 = call noalias ptr @av_strdup(ptr noundef nonnull %6) #13
  %11 = getelementptr inbounds nuw i8, ptr %2, i64 16
  store ptr %10, ptr %11, align 8, !tbaa !177
  %.not = icmp eq ptr %10, null
  br i1 %.not, label %14, label %12

12:                                               ; preds = %5
  %13 = call i32 @dec_request_view(ptr noundef nonnull %0, ptr noundef %3, ptr noundef %4)
  br label %14

14:                                               ; preds = %5, %12
  %.0 = phi i32 [ %13, %12 ], [ -12, %5 ]
  call void @llvm.lifetime.end.p0(i64 16, ptr nonnull %6) #13
  ret i32 %.0
}